; Function Attrs: nounwind uwtable
define void @lv_timer_enable(i1 noundef zeroext %0) local_unnamed_addr #0 {
  %2 = zext i1 %0 to i8
  store i8 %2, ptr getelementptr inbounds nuw (i8, ptr @lv_global, i64 240), align 8, !tbaa !3
  br i1 %0, label %3, label %lv_timer_handler_resume.exit

3:                                                ; preds = %1
  store i32 0, ptr getelementptr inbounds nuw (i8, ptr @lv_global, i64 244), align 4, !tbaa !19
  %4 = load ptr, ptr getelementptr inbounds nuw (i8, ptr @lv_global, i64 272), align 8, !tbaa !20
  %.not.i = icmp eq ptr %4, null
  br i1 %.not.i, label %lv_timer_handler_resume.exit, label %5

5:                                                ; preds = %3
  %6 = load ptr, ptr getelementptr inbounds nuw (i8, ptr @lv_global, i64 280), align 8, !tbaa !21
  tail call void %4(ptr noundef %6) #8
  br label %lv_timer_handler_resume.exit

lv_timer_handler_resume.exit:                     ; preds = %5, %3, %1
  ret void
}